target datalayout = "e-m:e-p270:32:32-p271:32:32-p272:64:64-i64:64-i128:128-f80:128-n8:16:32:64-S128"
target triple = "x86_64-pc-linux-gnu"

%struct.uv__iou = type { ptr, ptr, i32, ptr, ptr, ptr, i32, ptr, ptr, ptr, i64, i64, i64, i64, i32, i32 }
%struct.epoll_event = type <{ i32, %union.epoll_data }>
%union.epoll_data = type { ptr }
%struct.uv__io_uring_sqe = type { i8, i8, i16, i32, %union.anon.3, %union.anon.4, i32, %union.anon.5, i64, %union.anon.6 }
%union.anon.3 = type { i64 }
%union.anon.4 = type { i64 }
%union.anon.5 = type { i32 }
%union.anon.6 = type { [3 x i64] }
%struct.uv__io_uring_cqe = type { i64, i32, i32 }

@.str.26 = private unnamed_addr constant [33 x i8] c"libuv: io_uring_enter(getevents)\00", align 1

; Function Attrs: nounwind uwtable
define internal void @uv__epoll_ctl_prep(i32 noundef %0, ptr noundef %1, ptr noundef %2, i32 noundef %3, i32 noundef %4, ptr noundef %5) #0 {
  %7 = alloca i32, align 4
  %8 = alloca ptr, align 8
  %9 = alloca ptr, align 8
  %10 = alloca i32, align 4
  %11 = alloca i32, align 4
  %12 = alloca ptr, align 8
  %13 = alloca ptr, align 8
  %14 = alloca ptr, align 8
  %15 = alloca i32, align 4
  %16 = alloca i32, align 4
  store i32 %0, ptr %7, align 4
  store ptr %1, ptr %8, align 8
  store ptr %2, ptr %9, align 8
  store i32 %3, ptr %10, align 4
  store i32 %4, ptr %11, align 4
  store ptr %5, ptr %12, align 8
  call void @llvm.lifetime.start.p0(i64 8, ptr %13) #12
  call void @llvm.lifetime.start.p0(i64 8, ptr %14) #12
  call void @llvm.lifetime.start.p0(i64 4, ptr %15) #12
  call void @llvm.lifetime.start.p0(i64 4, ptr %16) #12
  %17 = load ptr, ptr %8, align 8
  %18 = getelementptr inbounds nuw %struct.uv__iou, ptr %17, i32 0, i32 2
  %19 = load i32, ptr %18, align 8
  store i32 %19, ptr %15, align 4
  %20 = load ptr, ptr %8, align 8
  %21 = getelementptr inbounds nuw %struct.uv__iou, ptr %20, i32 0, i32 1
  %22 = load ptr, ptr %21, align 8
  %23 = load i32, ptr %22, align 4
  %24 = add i32 %23, 1
  store i32 %24, ptr %22, align 4
  %25 = load i32, ptr %15, align 4
  %26 = and i32 %23, %25
  store i32 %26, ptr %16, align 4
  %27 = load ptr, ptr %9, align 8
  %28 = load i32, ptr %16, align 4
  %29 = zext i32 %28 to i64
  %30 = getelementptr inbounds nuw [256 x %struct.epoll_event], ptr %27, i64 0, i64 %29
  store ptr %30, ptr %14, align 8
  %31 = load ptr, ptr %14, align 8
  %32 = load ptr, ptr %12, align 8
  call void @llvm.memcpy.p0.p0.i64(ptr align 1 %31, ptr align 1 %32, i64 12, i1 false)
  %33 = load ptr, ptr %8, align 8
  %34 = getelementptr inbounds nuw %struct.uv__iou, ptr %33, i32 0, i32 9
  %35 = load ptr, ptr %34, align 8
  store ptr %35, ptr %13, align 8
  %36 = load ptr, ptr %13, align 8
  %37 = load i32, ptr %16, align 4
  %38 = zext i32 %37 to i64
  %39 = getelementptr inbounds nuw %struct.uv__io_uring_sqe, ptr %36, i64 %38
  store ptr %39, ptr %13, align 8
  %40 = load ptr, ptr %13, align 8
  call void @llvm.memset.p0.i64(ptr align 8 %40, i8 0, i64 64, i1 false)
  %41 = load ptr, ptr %14, align 8
  %42 = ptrtoint ptr %41 to i64
  %43 = load ptr, ptr %13, align 8
  %44 = getelementptr inbounds nuw %struct.uv__io_uring_sqe, ptr %43, i32 0, i32 5
  store i64 %42, ptr %44, align 8
  %45 = load i32, ptr %7, align 4
  %46 = load ptr, ptr %13, align 8
  %47 = getelementptr inbounds nuw %struct.uv__io_uring_sqe, ptr %46, i32 0, i32 3
  store i32 %45, ptr %47, align 4
  %48 = load i32, ptr %10, align 4
  %49 = load ptr, ptr %13, align 8
  %50 = getelementptr inbounds nuw %struct.uv__io_uring_sqe, ptr %49, i32 0, i32 6
  store i32 %48, ptr %50, align 8
  %51 = load i32, ptr %11, align 4
  %52 = sext i32 %51 to i64
  %53 = load ptr, ptr %13, align 8
  %54 = getelementptr inbounds nuw %struct.uv__io_uring_sqe, ptr %53, i32 0, i32 4
  store i64 %52, ptr %54, align 8
  %55 = load ptr, ptr %13, align 8
  %56 = getelementptr inbounds nuw %struct.uv__io_uring_sqe, ptr %55, i32 0, i32 0
  store i8 29, ptr %56, align 8
  %57 = load i32, ptr %10, align 4
  %58 = load i32, ptr %16, align 4
  %59 = shl i32 %58, 2
  %60 = or i32 %57, %59
  %61 = zext i32 %60 to i64
  %62 = load i32, ptr %11, align 4
  %63 = sext i32 %62 to i64
  %64 = shl i64 %63, 32
  %65 = or i64 %61, %64
  %66 = load ptr, ptr %13, align 8
  %67 = getelementptr inbounds nuw %struct.uv__io_uring_sqe, ptr %66, i32 0, i32 8
  store i64 %65, ptr %67, align 8
  %68 = load ptr, ptr %8, align 8
  %69 = getelementptr inbounds nuw %struct.uv__iou, ptr %68, i32 0, i32 0
  %70 = load ptr, ptr %69, align 8
  %71 = load i32, ptr %70, align 4
  %72 = load i32, ptr %15, align 4
  %73 = and i32 %71, %72
  %74 = load ptr, ptr %8, align 8
  %75 = getelementptr inbounds nuw %struct.uv__iou, ptr %74, i32 0, i32 1
  %76 = load ptr, ptr %75, align 8
  %77 = load i32, ptr %76, align 4
  %78 = load i32, ptr %15, align 4
  %79 = and i32 %77, %78
  %80 = icmp eq i32 %73, %79
  br i1 %80, label %81, label %85

81:                                               ; preds = %6
  %82 = load i32, ptr %7, align 4
  %83 = load ptr, ptr %8, align 8
  %84 = load ptr, ptr %9, align 8
  call void @uv__epoll_ctl_flush(i32 noundef %82, ptr noundef %83, ptr noundef %84)
  br label %85

85:                                               ; preds = %81, %6
  call void @llvm.lifetime.end.p0(i64 4, ptr %16) #12
  call void @llvm.lifetime.end.p0(i64 4, ptr %15) #12
  call void @llvm.lifetime.end.p0(i64 8, ptr %14) #12
  call void @llvm.lifetime.end.p0(i64 8, ptr %13) #12
  ret void
}

; Function Attrs: nounwind uwtable
define hidden i32 @uv__io_uring_enter(i32 noundef %0, i32 noundef %1, i32 noundef %2, i32 noundef %3) #0 {
  %5 = alloca i32, align 4
  %6 = alloca i32, align 4
  %7 = alloca i32, align 4
  %8 = alloca i32, align 4
  store i32 %0, ptr %5, align 4
  store i32 %1, ptr %6, align 4
  store i32 %2, ptr %7, align 4
  store i32 %3, ptr %8, align 4
  %9 = load i32, ptr %5, align 4
  %10 = load i32, ptr %6, align 4
  %11 = load i32, ptr %7, align 4
  %12 = load i32, ptr %8, align 4
  %13 = call i64 (i64, ...) @syscall(i64 noundef 426, i32 noundef %9, i32 noundef %10, i32 noundef %11, i32 noundef %12, ptr noundef null, i64 noundef 0) #12
  %14 = trunc i64 %13 to i32
  ret i32 %14
}

; Function Attrs: nounwind uwtable
define internal void @uv__epoll_ctl_flush(i32 noundef %0, ptr noundef %1, ptr noundef %2) #0 {
  %4 = alloca i32, align 4
  %5 = alloca ptr, align 8
  %6 = alloca ptr, align 8
  %7 = alloca [256 x %struct.epoll_event], align 16
  %8 = alloca ptr, align 8
  %9 = alloca i32, align 4
  %10 = alloca i32, align 4
  %11 = alloca i32, align 4
  %12 = alloca i32, align 4
  %13 = alloca i32, align 4
  %14 = alloca i32, align 4
  store i32 %0, ptr %4, align 4
  store ptr %1, ptr %5, align 8
  store ptr %2, ptr %6, align 8
  call void @llvm.lifetime.start.p0(i64 3072, ptr %7) #12
  call void @llvm.lifetime.start.p0(i64 8, ptr %8) #12
  call void @llvm.lifetime.start.p0(i64 4, ptr %9) #12
  call void @llvm.lifetime.start.p0(i64 4, ptr %10) #12
  call void @llvm.lifetime.start.p0(i64 4, ptr %11) #12
  call void @llvm.lifetime.start.p0(i64 4, ptr %12) #12
  call void @llvm.lifetime.start.p0(i64 4, ptr %13) #12
  call void @llvm.lifetime.start.p0(i64 4, ptr %14) #12
  %15 = load ptr, ptr %5, align 8
  %16 = getelementptr inbounds nuw %struct.uv__iou, ptr %15, i32 0, i32 1
  %17 = load ptr, ptr %16, align 8
  %18 = load i32, ptr %17, align 4
  %19 = load ptr, ptr %5, align 8
  %20 = getelementptr inbounds nuw %struct.uv__iou, ptr %19, i32 0, i32 0
  %21 = load ptr, ptr %20, align 8
  %22 = load i32, ptr %21, align 4
  %23 = sub i32 %18, %22
  store i32 %23, ptr %11, align 4
  br label %24

24:                                               ; preds = %38, %3
  %25 = load ptr, ptr %5, align 8
  %26 = getelementptr inbounds nuw %struct.uv__iou, ptr %25, i32 0, i32 14
  %27 = load i32, ptr %26, align 8
  %28 = load i32, ptr %11, align 4
  %29 = load i32, ptr %11, align 4
  %30 = call i32 @uv__io_uring_enter(i32 noundef %27, i32 noundef %28, i32 noundef %29, i32 noundef 1)
  store i32 %30, ptr %14, align 4
  br label %31

31:                                               ; preds = %24
  %32 = load i32, ptr %14, align 4
  %33 = icmp eq i32 %32, -1
  br i1 %33, label %34, label %38

34:                                               ; preds = %31
  %35 = call ptr @__errno_location() #14
  %36 = load i32, ptr %35, align 4
  %37 = icmp eq i32 %36, 4
  br label %38

38:                                               ; preds = %34, %31
  %39 = phi i1 [ false, %31 ], [ %37, %34 ]
  br i1 %39, label %24, label %40

40:                                               ; preds = %38
  %41 = load i32, ptr %14, align 4
  %42 = icmp slt i32 %41, 0
  br i1 %42, label %43, label %44

43:                                               ; preds = %40
  call void @perror(ptr noundef @.str.26)
  br label %44

44:                                               ; preds = %43, %40
  %45 = load i32, ptr %14, align 4
  %46 = load i32, ptr %11, align 4
  %47 = icmp ne i32 %45, %46
  br i1 %47, label %48, label %49

48:                                               ; preds = %44
  call void @abort() #15
  unreachable

49:                                               ; preds = %44
  %50 = getelementptr inbounds [256 x %struct.epoll_event], ptr %7, i64 0, i64 0
  %51 = load ptr, ptr %6, align 8
  %52 = getelementptr inbounds [256 x %struct.epoll_event], ptr %51, i64 0, i64 0
  call void @llvm.memcpy.p0.p0.i64(ptr align 16 %50, ptr align 1 %52, i64 3072, i1 false)
  br label %53

53:                                               ; preds = %115, %104, %84, %49
  %54 = load ptr, ptr %5, align 8
  %55 = getelementptr inbounds nuw %struct.uv__iou, ptr %54, i32 0, i32 4
  %56 = load ptr, ptr %55, align 8
  %57 = load i32, ptr %56, align 4
  %58 = load ptr, ptr %5, align 8
  %59 = getelementptr inbounds nuw %struct.uv__iou, ptr %58, i32 0, i32 5
  %60 = load ptr, ptr %59, align 8
  %61 = load i32, ptr %60, align 4
  %62 = icmp ne i32 %57, %61
  br i1 %62, label %63, label %123

63:                                               ; preds = %53
  %64 = load ptr, ptr %5, align 8
  %65 = getelementptr inbounds nuw %struct.uv__iou, ptr %64, i32 0, i32 4
  %66 = load ptr, ptr %65, align 8
  %67 = load i32, ptr %66, align 4
  %68 = add i32 %67, 1
  store i32 %68, ptr %66, align 4
  %69 = load ptr, ptr %5, align 8
  %70 = getelementptr inbounds nuw %struct.uv__iou, ptr %69, i32 0, i32 6
  %71 = load i32, ptr %70, align 8
  %72 = and i32 %67, %71
  store i32 %72, ptr %10, align 4
  %73 = load ptr, ptr %5, align 8
  %74 = getelementptr inbounds nuw %struct.uv__iou, ptr %73, i32 0, i32 8
  %75 = load ptr, ptr %74, align 8
  store ptr %75, ptr %8, align 8
  %76 = load ptr, ptr %8, align 8
  %77 = load i32, ptr %10, align 4
  %78 = zext i32 %77 to i64
  %79 = getelementptr inbounds nuw %struct.uv__io_uring_cqe, ptr %76, i64 %78
  store ptr %79, ptr %8, align 8
  %80 = load ptr, ptr %8, align 8
  %81 = getelementptr inbounds nuw %struct.uv__io_uring_cqe, ptr %80, i32 0, i32 1
  %82 = load i32, ptr %81, align 8
  %83 = icmp eq i32 %82, 0
  br i1 %83, label %84, label %85

84:                                               ; preds = %63
  br label %53

85:                                               ; preds = %63
  %86 = load ptr, ptr %8, align 8
  %87 = getelementptr inbounds nuw %struct.uv__io_uring_cqe, ptr %86, i32 0, i32 0
  %88 = load i64, ptr %87, align 8
  %89 = lshr i64 %88, 32
  %90 = trunc i64 %89 to i32
  store i32 %90, ptr %12, align 4
  %91 = load ptr, ptr %8, align 8
  %92 = getelementptr inbounds nuw %struct.uv__io_uring_cqe, ptr %91, i32 0, i32 0
  %93 = load i64, ptr %92, align 8
  %94 = and i64 3, %93
  %95 = trunc i64 %94 to i32
  store i32 %95, ptr %13, align 4
  %96 = load ptr, ptr %8, align 8
  %97 = getelementptr inbounds nuw %struct.uv__io_uring_cqe, ptr %96, i32 0, i32 0
  %98 = load i64, ptr %97, align 8
  %99 = lshr i64 %98, 2
  %100 = and i64 255, %99
  %101 = trunc i64 %100 to i32
  store i32 %101, ptr %9, align 4
  %102 = load i32, ptr %13, align 4
  %103 = icmp eq i32 %102, 2
  br i1 %103, label %104, label %105

104:                                              ; preds = %85
  br label %53

105:                                              ; preds = %85
  %106 = load i32, ptr %13, align 4
  %107 = icmp ne i32 %106, 1
  br i1 %107, label %108, label %109

108:                                              ; preds = %105
  call void @abort() #15
  unreachable

109:                                              ; preds = %105
  %110 = load ptr, ptr %8, align 8
  %111 = getelementptr inbounds nuw %struct.uv__io_uring_cqe, ptr %110, i32 0, i32 1
  %112 = load i32, ptr %111, align 8
  %113 = icmp ne i32 %112, -17
  br i1 %113, label %114, label %115

114:                                              ; preds = %109
  call void @abort() #15
  unreachable

115:                                              ; preds = %109
  %116 = load i32, ptr %4, align 4
  %117 = load ptr, ptr %5, align 8
  %118 = load ptr, ptr %6, align 8
  %119 = load i32, ptr %12, align 4
  %120 = load i32, ptr %9, align 4
  %121 = zext i32 %120 to i64
  %122 = getelementptr inbounds nuw [256 x %struct.epoll_event], ptr %7, i64 0, i64 %121
  call void @uv__epoll_ctl_prep(i32 noundef %116, ptr noundef %117, ptr noundef %118, i32 noundef 3, i32 noundef %119, ptr noundef %122)
  br label %53

123:                                              ; preds = %53
  call void @llvm.lifetime.end.p0(i64 4, ptr %14) #12
  call void @llvm.lifetime.end.p0(i64 4, ptr %13) #12
  call void @llvm.lifetime.end.p0(i64 4, ptr %12) #12
  call void @llvm.lifetime.end.p0(i64 4, ptr %11) #12
  call void @llvm.lifetime.end.p0(i64 4, ptr %10) #12
  call void @llvm.lifetime.end.p0(i64 4, ptr %9) #12
  call void @llvm.lifetime.end.p0(i64 8, ptr %8) #12
  call void @llvm.lifetime.end.p0(i64 3072, ptr %7) #12
  ret void
}