; Function Attrs: nounwind uwtable
define internal fastcc void @uv__epoll_ctl_flush(i32 noundef %0, ptr noundef readonly captures(none) %1, ptr noundef nonnull %2) unnamed_addr #0 {
  %4 = alloca [256 x %struct.epoll_event], align 16
  call void @llvm.lifetime.start.p0(i64 3072, ptr nonnull %4) #17
  %5 = getelementptr inbounds nuw i8, ptr %1, i64 8
  %6 = load ptr, ptr %5, align 8
  %7 = load i32, ptr %6, align 4
  %8 = load ptr, ptr %1, align 8
  %9 = load i32, ptr %8, align 4
  %10 = sub i32 %7, %9
  %11 = getelementptr inbounds nuw i8, ptr %1, i64 112
  br label %12

12:                                               ; preds = %17, %3
  %13 = load i32, ptr %11, align 8
  %14 = tail call i64 (i64, ...) @syscall(i64 noundef 426, i32 noundef %13, i32 noundef %10, i32 noundef %10, i32 noundef 1, ptr noundef null, i64 noundef 0) #17
  %15 = trunc i64 %14 to i32
  %16 = icmp eq i32 %15, -1
  br i1 %16, label %17, label %.critedge

17:                                               ; preds = %12
  %18 = tail call ptr @__errno_location() #19
  %19 = load i32, ptr %18, align 4
  %20 = icmp eq i32 %19, 4
  br i1 %20, label %12, label %.critedge.thread

.critedge:                                        ; preds = %12
  %21 = icmp slt i32 %15, 0
  br i1 %21, label %.critedge.thread, label %22

.critedge.thread:                                 ; preds = %17, %.critedge
  tail call void @perror(ptr noundef nonnull @.str.26) #21
  br label %22

22:                                               ; preds = %.critedge.thread, %.critedge
  %.not = icmp eq i32 %10, %15
  br i1 %.not, label %24, label %23

23:                                               ; preds = %22
  tail call void @abort() #20
  unreachable

24:                                               ; preds = %22
  call void @llvm.memcpy.p0.p0.i64(ptr noundef nonnull align 16 dereferenceable(3072) %4, ptr noundef nonnull align 1 dereferenceable(3072) %2, i64 3072, i1 false)
  %25 = getelementptr inbounds nuw i8, ptr %1, i64 32
  %26 = getelementptr inbounds nuw i8, ptr %1, i64 40
  %27 = load ptr, ptr %25, align 8
  %28 = load i32, ptr %27, align 4
  %29 = load ptr, ptr %26, align 8
  %30 = load i32, ptr %29, align 4
  %.not3034 = icmp eq i32 %28, %30
  br i1 %.not3034, label %._crit_edge, label %.lr.ph

.lr.ph:                                           ; preds = %24
  %31 = getelementptr inbounds nuw i8, ptr %1, i64 48
  %32 = getelementptr inbounds nuw i8, ptr %1, i64 64
  %33 = getelementptr inbounds nuw i8, ptr %1, i64 16
  %34 = getelementptr inbounds nuw i8, ptr %1, i64 72
  br label %35

35:                                               ; preds = %.lr.ph, %.backedge
  %36 = phi i32 [ %28, %.lr.ph ], [ %88, %.backedge ]
  %37 = phi ptr [ %27, %.lr.ph ], [ %87, %.backedge ]
  %38 = add i32 %36, 1
  store i32 %38, ptr %37, align 4
  %39 = load i32, ptr %31, align 8
  %40 = and i32 %39, %36
  %41 = load ptr, ptr %32, align 8
  %42 = zext i32 %40 to i64
  %43 = getelementptr inbounds nuw %struct.uv__io_uring_cqe, ptr %41, i64 %42
  %44 = getelementptr inbounds nuw i8, ptr %43, i64 8
  %45 = load i32, ptr %44, align 8
  %46 = icmp eq i32 %45, 0
  br i1 %46, label %.backedge, label %47

47:                                               ; preds = %35
  %48 = load i64, ptr %43, align 8
  %49 = trunc i64 %48 to i32
  %50 = and i32 %49, 3
  %51 = lshr i64 %48, 2
  %52 = and i64 %51, 255
  switch i32 %50, label %53 [
    i32 2, label %.backedge
    i32 1, label %54
  ]

53:                                               ; preds = %47
  tail call void @abort() #20
  unreachable

54:                                               ; preds = %47
  %.not32 = icmp eq i32 %45, -17
  br i1 %.not32, label %56, label %55

55:                                               ; preds = %54
  tail call void @abort() #20
  unreachable

56:                                               ; preds = %54
  %57 = getelementptr inbounds nuw [256 x %struct.epoll_event], ptr %4, i64 0, i64 %52
  %58 = load i32, ptr %33, align 8
  %59 = load ptr, ptr %5, align 8
  %60 = load i32, ptr %59, align 4
  %61 = add i32 %60, 1
  store i32 %61, ptr %59, align 4
  %62 = and i32 %60, %58
  %63 = zext i32 %62 to i64
  %64 = getelementptr inbounds nuw [256 x %struct.epoll_event], ptr %2, i64 0, i64 %63
  call void @llvm.memcpy.p0.p0.i64(ptr noundef nonnull align 1 dereferenceable(12) %64, ptr noundef nonnull align 4 dereferenceable(12) %57, i64 12, i1 false)
  %65 = load ptr, ptr %34, align 8
  %66 = getelementptr inbounds nuw %struct.uv__io_uring_sqe, ptr %65, i64 %63
  tail call void @llvm.memset.p0.i64(ptr noundef nonnull align 8 dereferenceable(64) %66, i8 0, i64 64, i1 false)
  %67 = ptrtoint ptr %64 to i64
  %68 = getelementptr inbounds nuw i8, ptr %66, i64 16
  store i64 %67, ptr %68, align 8
  %69 = getelementptr inbounds nuw i8, ptr %66, i64 4
  store i32 %0, ptr %69, align 4
  %70 = getelementptr inbounds nuw i8, ptr %66, i64 24
  store i32 3, ptr %70, align 8
  %71 = ashr i64 %48, 32
  %72 = getelementptr inbounds nuw i8, ptr %66, i64 8
  store i64 %71, ptr %72, align 8
  store i8 29, ptr %66, align 8
  %73 = shl i32 %62, 2
  %74 = or disjoint i32 %73, 3
  %75 = zext i32 %74 to i64
  %76 = and i64 %48, -4294967296
  %77 = or disjoint i64 %76, %75
  %78 = getelementptr inbounds nuw i8, ptr %66, i64 32
  store i64 %77, ptr %78, align 8
  %79 = load ptr, ptr %1, align 8
  %80 = load i32, ptr %79, align 4
  %81 = load ptr, ptr %5, align 8
  %82 = load i32, ptr %81, align 4
  %83 = xor i32 %82, %80
  %84 = and i32 %83, %58
  %85 = icmp eq i32 %84, 0
  br i1 %85, label %86, label %.backedge

86:                                               ; preds = %56
  tail call fastcc void @uv__epoll_ctl_flush(i32 noundef %0, ptr noundef nonnull %1, ptr noundef nonnull %2)
  br label %.backedge

.backedge:                                        ; preds = %86, %56, %35, %47
  %87 = load ptr, ptr %25, align 8
  %88 = load i32, ptr %87, align 4
  %89 = load ptr, ptr %26, align 8
  %90 = load i32, ptr %89, align 4
  %.not30 = icmp eq i32 %88, %90
  br i1 %.not30, label %._crit_edge, label %35

._crit_edge:                                      ; preds = %.backedge, %24
  call void @llvm.lifetime.end.p0(i64 3072, ptr nonnull %4) #17
  ret void
}